; Function Attrs: mustprogress uwtable
define noundef i64 @_ZNK7rocksdb19TransactionBaseImpl10GetNumKeysEv(ptr noundef nonnull readonly align 8 captures(none) dereferenceable(400) %0) unnamed_addr #4 align 2 {
  %2 = getelementptr inbounds nuw i8, ptr %0, i64 200
  %3 = load ptr, ptr %2, align 8, !tbaa !143
  %4 = load ptr, ptr %3, align 8, !tbaa !27
  %5 = getelementptr inbounds nuw i8, ptr %4, i64 104
  %6 = load ptr, ptr %5, align 8
  %7 = tail call noundef i64 %6(ptr noundef nonnull align 8 dereferenceable(8) %3)
  ret i64 %7
}